target datalayout = "e-m:e-p270:32:32-p271:32:32-p272:64:64-i64:64-i128:128-f80:128-n8:16:32:64-S128"
target triple = "x86_64-pc-linux-gnu"

%struct._zval_struct = type { %union._zend_value, %union.anon.3, %union.anon.6 }
%union._zend_value = type { i64 }
%union.anon.3 = type { i32 }
%union.anon.6 = type { i32 }
%struct._zend_array = type { %struct._zend_refcounted_h, %union.anon.0, i32, %union.anon.1, i32, i32, i32, i32, i64, ptr }
%struct._zend_refcounted_h = type { i32, %union.anon }
%union.anon = type { i32 }
%union.anon.0 = type { i32 }
%union.anon.1 = type { ptr }
%struct._zend_pcre_globals = type { %struct._zend_array, i64, i64, i8, i32, %struct._zval_struct, %struct._zval_struct, ptr }

@char_tables = internal global %struct._zend_array zeroinitializer, align 8
@gctx = internal global ptr null, align 8
@cctx = internal global ptr null, align 8
@mdata = internal global ptr null, align 8
@mctx = internal global ptr null, align 8
@pcre2_init_ok = internal global i8 0, align 1
@jit_stack = internal global ptr null, align 8

; Function Attrs: nounwind uwtable
define internal void @php_pcre_shutdown_pcre2() #0 {
  %1 = load ptr, ptr @gctx, align 8, !tbaa !51
  %2 = icmp ne ptr %1, null
  br i1 %2, label %3, label %5

3:                                                ; preds = %0
  %4 = load ptr, ptr @gctx, align 8, !tbaa !51
  call void @php_pcre2_general_context_free(ptr noundef %4)
  store ptr null, ptr @gctx, align 8, !tbaa !51
  br label %5

5:                                                ; preds = %3, %0
  %6 = load ptr, ptr @cctx, align 8, !tbaa !53
  %7 = icmp ne ptr %6, null
  br i1 %7, label %8, label %10

8:                                                ; preds = %5
  %9 = load ptr, ptr @cctx, align 8, !tbaa !53
  call void @php_pcre2_compile_context_free(ptr noundef %9)
  store ptr null, ptr @cctx, align 8, !tbaa !53
  br label %10

10:                                               ; preds = %8, %5
  %11 = load ptr, ptr @mctx, align 8, !tbaa !104
  %12 = icmp ne ptr %11, null
  br i1 %12, label %13, label %15

13:                                               ; preds = %10
  %14 = load ptr, ptr @mctx, align 8, !tbaa !104
  call void @php_pcre2_match_context_free(ptr noundef %14)
  store ptr null, ptr @mctx, align 8, !tbaa !104
  br label %15

15:                                               ; preds = %13, %10
  %16 = load ptr, ptr @jit_stack, align 8, !tbaa !155
  %17 = icmp ne ptr %16, null
  br i1 %17, label %18, label %20

18:                                               ; preds = %15
  %19 = load ptr, ptr @jit_stack, align 8, !tbaa !155
  call void @php_pcre2_jit_stack_free(ptr noundef %19)
  store ptr null, ptr @jit_stack, align 8, !tbaa !155
  br label %20

20:                                               ; preds = %18, %15
  %21 = load ptr, ptr @mdata, align 8, !tbaa !73
  %22 = icmp ne ptr %21, null
  br i1 %22, label %23, label %25

23:                                               ; preds = %20
  %24 = load ptr, ptr @mdata, align 8, !tbaa !73
  call void @php_pcre2_match_data_free(ptr noundef %24)
  store ptr null, ptr @mdata, align 8, !tbaa !73
  br label %25

25:                                               ; preds = %23, %20
  store i8 0, ptr @pcre2_init_ok, align 1, !tbaa !45
  ret void
}

; Function Attrs: nounwind uwtable
define internal void @zm_globals_dtor_pcre(ptr noundef %0) #0 {
  %2 = alloca ptr, align 8
  store ptr %0, ptr %2, align 8, !tbaa !146
  %3 = load ptr, ptr %2, align 8, !tbaa !146
  %4 = getelementptr inbounds nuw %struct._zend_pcre_globals, ptr %3, i32 0, i32 0
  call void @zend_hash_destroy(ptr noundef %4)
  call void @php_pcre_shutdown_pcre2()
  call void @zend_hash_destroy(ptr noundef @char_tables)
  ret void
}