; Function Attrs: nounwind uwtable
define internal void @zm_globals_dtor_pcre(ptr noundef %0) #0 {
  tail call void @zend_hash_destroy(ptr noundef %0) #24
  %2 = load ptr, ptr @gctx, align 8, !tbaa !46
  %.not.i = icmp eq ptr %2, null
  br i1 %.not.i, label %4, label %3

3:                                                ; preds = %1
  tail call void @php_pcre2_general_context_free(ptr noundef nonnull %2) #24
  store ptr null, ptr @gctx, align 8, !tbaa !46
  br label %4

4:                                                ; preds = %3, %1
  %5 = load ptr, ptr @cctx, align 8, !tbaa !49
  %.not5.i = icmp eq ptr %5, null
  br i1 %.not5.i, label %7, label %6

6:                                                ; preds = %4
  tail call void @php_pcre2_compile_context_free(ptr noundef nonnull %5) #24
  store ptr null, ptr @cctx, align 8, !tbaa !49
  br label %7

7:                                                ; preds = %6, %4
  %8 = load ptr, ptr @mctx, align 8, !tbaa !94
  %.not6.i = icmp eq ptr %8, null
  br i1 %.not6.i, label %10, label %9

9:                                                ; preds = %7
  tail call void @php_pcre2_match_context_free(ptr noundef nonnull %8) #24
  store ptr null, ptr @mctx, align 8, !tbaa !94
  br label %10

10:                                               ; preds = %9, %7
  %11 = load ptr, ptr @jit_stack, align 8, !tbaa !121
  %.not7.i = icmp eq ptr %11, null
  br i1 %.not7.i, label %13, label %12

12:                                               ; preds = %10
  tail call void @php_pcre2_jit_stack_free(ptr noundef nonnull %11) #24
  store ptr null, ptr @jit_stack, align 8, !tbaa !121
  br label %13

13:                                               ; preds = %12, %10
  %14 = load ptr, ptr @mdata, align 8, !tbaa !66
  %.not8.i = icmp eq ptr %14, null
  br i1 %.not8.i, label %php_pcre_shutdown_pcre2.exit, label %15

15:                                               ; preds = %13
  tail call void @php_pcre2_match_data_free(ptr noundef nonnull %14) #24
  store ptr null, ptr @mdata, align 8, !tbaa !66
  br label %php_pcre_shutdown_pcre2.exit

php_pcre_shutdown_pcre2.exit:                     ; preds = %13, %15
  store i1 false, ptr @pcre2_init_ok, align 1
  tail call void @zend_hash_destroy(ptr noundef nonnull @char_tables) #24
  ret void
}